; Function Attrs: mustprogress nounwind uwtable
define dso_local { ptr, ptr } @_ZNK4llvm8DWARFDie9getParentEv(ptr noundef nonnull readonly align 8 captures(none) dereferenceable(16) %0) local_unnamed_addr #0 align 2 {
  %2 = load ptr, ptr %0, align 8
  %.not.i = icmp ne ptr %2, null
  %3 = getelementptr inbounds nuw i8, ptr %0, i64 8
  %4 = load ptr, ptr %3, align 8
  %5 = icmp ne ptr %4, null
  %6 = select i1 %.not.i, i1 %5, i1 false
  br i1 %6, label %7, label %11

7:                                                ; preds = %1
  %8 = tail call { ptr, ptr } @_ZN4llvm9DWARFUnit9getParentEPKNS_19DWARFDebugInfoEntryE(ptr noundef nonnull align 8 dereferenceable(448) %2, ptr noundef nonnull %4) #19
  %9 = extractvalue { ptr, ptr } %8, 0
  %10 = extractvalue { ptr, ptr } %8, 1
  br label %11

11:                                               ; preds = %1, %7
  %.sroa.0.0 = phi ptr [ %9, %7 ], [ null, %1 ]
  %.sroa.4.0 = phi ptr [ %10, %7 ], [ null, %1 ]
  %.fca.0.insert = insertvalue { ptr, ptr } poison, ptr %.sroa.0.0, 0
  %.fca.1.insert = insertvalue { ptr, ptr } %.fca.0.insert, ptr %.sroa.4.0, 1
  ret { ptr, ptr } %.fca.1.insert
}